target datalayout = "e-m:e-p270:32:32-p271:32:32-p272:64:64-i64:64-i128:128-f80:128-n8:16:32:64-S128"
target triple = "x86_64-pc-linux-gnu"

%struct.mbedtls_ecp_point = type { %struct.mbedtls_mpi, %struct.mbedtls_mpi, %struct.mbedtls_mpi }
%struct.mbedtls_mpi = type { ptr, i16, i16 }

; Function Attrs: nounwind uwtable
define hidden i32 @mbedtls_ecp_point_read_string(ptr noundef %0, i32 noundef %1, ptr noundef %2, ptr noundef %3) #0 {
  %5 = alloca ptr, align 8
  %6 = alloca i32, align 4
  %7 = alloca ptr, align 8
  %8 = alloca ptr, align 8
  %9 = alloca i32, align 4
  store ptr %0, ptr %5, align 8, !tbaa !34
  store i32 %1, ptr %6, align 4, !tbaa !3
  store ptr %2, ptr %7, align 8, !tbaa !22
  store ptr %3, ptr %8, align 8, !tbaa !22
  call void @llvm.lifetime.start.p0(i64 4, ptr %9) #11
  store i32 -110, ptr %9, align 4, !tbaa !3
  br label %10

10:                                               ; preds = %4
  %11 = load ptr, ptr %5, align 8, !tbaa !34
  %12 = getelementptr inbounds nuw %struct.mbedtls_ecp_point, ptr %11, i32 0, i32 0
  %13 = load i32, ptr %6, align 4, !tbaa !3
  %14 = load ptr, ptr %7, align 8, !tbaa !22
  %15 = call i32 @mbedtls_mpi_read_string(ptr noundef %12, i32 noundef %13, ptr noundef %14)
  store i32 %15, ptr %9, align 4, !tbaa !3
  %16 = icmp ne i32 %15, 0
  br i1 %16, label %17, label %18

17:                                               ; preds = %10
  br label %41

18:                                               ; preds = %10
  br label %19

19:                                               ; preds = %18
  br label %20

20:                                               ; preds = %19
  br label %21

21:                                               ; preds = %20
  %22 = load ptr, ptr %5, align 8, !tbaa !34
  %23 = getelementptr inbounds nuw %struct.mbedtls_ecp_point, ptr %22, i32 0, i32 1
  %24 = load i32, ptr %6, align 4, !tbaa !3
  %25 = load ptr, ptr %8, align 8, !tbaa !22
  %26 = call i32 @mbedtls_mpi_read_string(ptr noundef %23, i32 noundef %24, ptr noundef %25)
  store i32 %26, ptr %9, align 4, !tbaa !3
  %27 = icmp ne i32 %26, 0
  br i1 %27, label %28, label %29

28:                                               ; preds = %21
  br label %41

29:                                               ; preds = %21
  br label %30

30:                                               ; preds = %29
  br label %31

31:                                               ; preds = %30
  br label %32

32:                                               ; preds = %31
  %33 = load ptr, ptr %5, align 8, !tbaa !34
  %34 = getelementptr inbounds nuw %struct.mbedtls_ecp_point, ptr %33, i32 0, i32 2
  %35 = call i32 @mbedtls_mpi_lset(ptr noundef %34, i64 noundef 1)
  store i32 %35, ptr %9, align 4, !tbaa !3
  %36 = icmp ne i32 %35, 0
  br i1 %36, label %37, label %38

37:                                               ; preds = %32
  br label %41

38:                                               ; preds = %32
  br label %39

39:                                               ; preds = %38
  br label %40

40:                                               ; preds = %39
  br label %41

41:                                               ; preds = %40, %37, %28, %17
  %42 = load i32, ptr %9, align 4, !tbaa !3
  call void @llvm.lifetime.end.p0(i64 4, ptr %9) #11
  ret i32 %42
}