; Function Attrs: nounwind uwtable
define hidden i32 @mbedtls_ecp_point_read_string(ptr noundef %0, i32 noundef %1, ptr noundef %2, ptr noundef %3) local_unnamed_addr #7 {
  %5 = tail call i32 @mbedtls_mpi_read_string(ptr noundef %0, i32 noundef %1, ptr noundef %2) #21
  %.not = icmp eq i32 %5, 0
  br i1 %.not, label %6, label %12

6:                                                ; preds = %4
  %7 = getelementptr inbounds nuw i8, ptr %0, i64 16
  %8 = tail call i32 @mbedtls_mpi_read_string(ptr noundef nonnull %7, i32 noundef %1, ptr noundef %3) #21
  %.not9 = icmp eq i32 %8, 0
  br i1 %.not9, label %9, label %12

9:                                                ; preds = %6
  %10 = getelementptr inbounds nuw i8, ptr %0, i64 32
  %11 = tail call i32 @mbedtls_mpi_lset(ptr noundef nonnull %10, i64 noundef 1) #21
  br label %12

12:                                               ; preds = %9, %6, %4
  %.0 = phi i32 [ %5, %4 ], [ %8, %6 ], [ %11, %9 ]
  ret i32 %.0
}